; Function Attrs: mustprogress nofree norecurse nosync nounwind willreturn memory(readwrite, inaccessiblemem: none) uwtable
define void @_ZN5ImGui19SetItemAllowOverlapEv() local_unnamed_addr #34 {
  %1 = load ptr, ptr @GImGui, align 8, !tbaa !216
  %2 = getelementptr inbounds nuw i8, ptr %1, i64 7528
  %3 = load i32, ptr %2, align 8, !tbaa !474
  %4 = getelementptr inbounds nuw i8, ptr %1, i64 5108
  %5 = load i32, ptr %4, align 4, !tbaa !770
  %6 = icmp eq i32 %5, %3
  br i1 %6, label %7, label %9

7:                                                ; preds = %0
  %8 = getelementptr inbounds nuw i8, ptr %1, i64 5128
  store i8 1, ptr %8, align 8, !tbaa !771
  br label %9

9:                                                ; preds = %7, %0
  %10 = getelementptr inbounds nuw i8, ptr %1, i64 5132
  %11 = load i32, ptr %10, align 4, !tbaa !751
  %12 = icmp eq i32 %11, %3
  br i1 %12, label %13, label %15

13:                                               ; preds = %9
  %14 = getelementptr inbounds nuw i8, ptr %1, i64 5145
  store i8 1, ptr %14, align 1, !tbaa !764
  br label %15

15:                                               ; preds = %13, %9
  ret void
}